target datalayout = "e-m:e-p270:32:32-p271:32:32-p272:64:64-i64:64-i128:128-f80:128-n8:16:32:64-S128"
target triple = "x86_64-pc-linux-gnu"

%struct.Vec_Int_t_ = type { i32, i32, ptr }
%struct.Abc_Ntk_t_ = type { i32, i32, ptr, ptr, ptr, ptr, ptr, ptr, ptr, ptr, ptr, ptr, ptr, [11 x i32], i32, i32, i32, i32, ptr, i32, ptr, ptr, i32, i32, i32, double, i32, %struct.Vec_Int_t_, ptr, ptr, ptr, ptr, ptr, float, i32, ptr, ptr, ptr, ptr, ptr, ptr, ptr, ptr, ptr, ptr, ptr, ptr, ptr, ptr, ptr, ptr, ptr, ptr, ptr, ptr, ptr }
%struct.Aig_Man_t_ = type { ptr, ptr, ptr, ptr, ptr, ptr, ptr, %struct.Aig_Obj_t_, i32, i32, i32, i32, i32, i32, [7 x i32], i32, ptr, i32, ptr, i32, ptr, i32, i32, i32, ptr, i32, i32, i32, i32, i32, ptr, ptr, i32, ptr, ptr, i32, ptr, ptr, i32, i32, i32, ptr, ptr, ptr, ptr, ptr, ptr, ptr, ptr, ptr, ptr, ptr, ptr, ptr, ptr, i32, ptr, ptr, ptr, ptr, i32, i64, i64, i64, ptr, ptr }
%struct.Aig_Obj_t_ = type { %union.anon, ptr, ptr, i64, i32, i32, %union.anon.0 }
%union.anon = type { ptr }
%union.anon.0 = type { ptr }

; Function Attrs: nounwind uwtable
define i32 @Abc_NtkDarReach(ptr noundef %0, ptr noundef %1) #0 {
  %3 = alloca i32, align 4
  %4 = alloca ptr, align 8
  %5 = alloca ptr, align 8
  %6 = alloca ptr, align 8
  %7 = alloca i32, align 4
  store ptr %0, ptr %4, align 8
  store ptr %1, ptr %5, align 8
  %8 = load ptr, ptr %4, align 8
  %9 = call ptr @Abc_NtkToDar(ptr noundef %8, i32 noundef 0, i32 noundef 1)
  store ptr %9, ptr %6, align 8
  %10 = load ptr, ptr %6, align 8
  %11 = icmp eq ptr %10, null
  br i1 %11, label %12, label %13

12:                                               ; preds = %2
  store i32 -1, ptr %3, align 4
  br label %50

13:                                               ; preds = %2
  %14 = load ptr, ptr %6, align 8
  %15 = load ptr, ptr %5, align 8
  %16 = call i32 @Aig_ManVerifyUsingBdds(ptr noundef %14, ptr noundef %15)
  store i32 %16, ptr %7, align 4
  %17 = load ptr, ptr %4, align 8
  %18 = getelementptr inbounds %struct.Abc_Ntk_t_, ptr %17, i32 0, i32 37
  %19 = load ptr, ptr %18, align 8
  %20 = icmp ne ptr %19, null
  br i1 %20, label %21, label %27

21:                                               ; preds = %13
  %22 = load ptr, ptr %4, align 8
  %23 = getelementptr inbounds %struct.Abc_Ntk_t_, ptr %22, i32 0, i32 37
  %24 = load ptr, ptr %23, align 8
  call void @free(ptr noundef %24) #10
  %25 = load ptr, ptr %4, align 8
  %26 = getelementptr inbounds %struct.Abc_Ntk_t_, ptr %25, i32 0, i32 37
  store ptr null, ptr %26, align 8
  br label %28

27:                                               ; preds = %13
  br label %28

28:                                               ; preds = %27, %21
  %29 = load ptr, ptr %4, align 8
  %30 = getelementptr inbounds %struct.Abc_Ntk_t_, ptr %29, i32 0, i32 38
  %31 = load ptr, ptr %30, align 8
  %32 = icmp ne ptr %31, null
  br i1 %32, label %33, label %39

33:                                               ; preds = %28
  %34 = load ptr, ptr %4, align 8
  %35 = getelementptr inbounds %struct.Abc_Ntk_t_, ptr %34, i32 0, i32 38
  %36 = load ptr, ptr %35, align 8
  call void @free(ptr noundef %36) #10
  %37 = load ptr, ptr %4, align 8
  %38 = getelementptr inbounds %struct.Abc_Ntk_t_, ptr %37, i32 0, i32 38
  store ptr null, ptr %38, align 8
  br label %40

39:                                               ; preds = %28
  br label %40

40:                                               ; preds = %39, %33
  %41 = load ptr, ptr %6, align 8
  %42 = getelementptr inbounds %struct.Aig_Man_t_, ptr %41, i32 0, i32 51
  %43 = load ptr, ptr %42, align 8
  %44 = load ptr, ptr %4, align 8
  %45 = getelementptr inbounds %struct.Abc_Ntk_t_, ptr %44, i32 0, i32 38
  store ptr %43, ptr %45, align 8
  %46 = load ptr, ptr %6, align 8
  %47 = getelementptr inbounds %struct.Aig_Man_t_, ptr %46, i32 0, i32 51
  store ptr null, ptr %47, align 8
  %48 = load ptr, ptr %6, align 8
  call void @Aig_ManStop(ptr noundef %48)
  %49 = load i32, ptr %7, align 4
  store i32 %49, ptr %3, align 4
  br label %50

50:                                               ; preds = %40, %12
  %51 = load i32, ptr %3, align 4
  ret i32 %51
}