; Function Attrs: nounwind uwtable
define i32 @Abc_NtkDarReach(ptr noundef %0, ptr noundef %1) local_unnamed_addr #1 {
  %3 = tail call ptr @Abc_NtkToDar(ptr noundef %0, i32 noundef 0, i32 noundef 1)
  %4 = icmp eq ptr %3, null
  br i1 %4, label %17, label %5

5:                                                ; preds = %2
  %6 = tail call i32 @Aig_ManVerifyUsingBdds(ptr noundef nonnull %3, ptr noundef %1) #19
  %7 = getelementptr inbounds nuw i8, ptr %0, i64 304
  %8 = load ptr, ptr %7, align 8
  %.not = icmp eq ptr %8, null
  br i1 %.not, label %10, label %9

9:                                                ; preds = %5
  tail call void @free(ptr noundef nonnull %8) #19
  store ptr null, ptr %7, align 8
  br label %10

10:                                               ; preds = %5, %9
  %11 = getelementptr inbounds nuw i8, ptr %0, i64 312
  %12 = load ptr, ptr %11, align 8
  %.not18 = icmp eq ptr %12, null
  br i1 %.not18, label %14, label %13

13:                                               ; preds = %10
  tail call void @free(ptr noundef nonnull %12) #19
  store ptr null, ptr %11, align 8
  br label %14

14:                                               ; preds = %10, %13
  %15 = getelementptr inbounds nuw i8, ptr %3, i64 408
  %16 = load ptr, ptr %15, align 8
  store ptr %16, ptr %11, align 8
  store ptr null, ptr %15, align 8
  tail call void @Aig_ManStop(ptr noundef nonnull %3) #19
  br label %17

17:                                               ; preds = %2, %14
  %.0 = phi i32 [ %6, %14 ], [ -1, %2 ]
  ret i32 %.0
}